; Function Attrs: nofree norecurse nosync nounwind memory(argmem: readwrite) uwtable
define internal void @vertical_compose_dd137iL0_8bit(ptr noundef readonly captures(none) %0, ptr noundef readonly captures(none) %1, ptr noundef captures(none) %2, ptr noundef readonly captures(none) %3, ptr noundef readonly captures(none) %4, i32 noundef %5) #3 {
  %7 = icmp sgt i32 %5, 0
  br i1 %7, label %.lr.ph.preheader, label %._crit_edge

.lr.ph.preheader:                                 ; preds = %6
  %wide.trip.count = zext nneg i32 %5 to i64
  br label %.lr.ph

.lr.ph:                                           ; preds = %.lr.ph.preheader, %.lr.ph
  %indvars.iv = phi i64 [ 0, %.lr.ph.preheader ], [ %indvars.iv.next, %.lr.ph ]
  %8 = getelementptr inbounds nuw i16, ptr %2, i64 %indvars.iv
  %9 = load i16, ptr %8, align 2, !tbaa !39
  %10 = getelementptr inbounds nuw i16, ptr %1, i64 %indvars.iv
  %11 = load i16, ptr %10, align 2, !tbaa !39
  %12 = sext i16 %11 to i32
  %13 = getelementptr inbounds nuw i16, ptr %3, i64 %indvars.iv
  %14 = load i16, ptr %13, align 2, !tbaa !39
  %15 = sext i16 %14 to i32
  %16 = add nsw i32 %15, %12
  %17 = mul nsw i32 %16, 9
  %18 = getelementptr inbounds nuw i16, ptr %4, i64 %indvars.iv
  %19 = load i16, ptr %18, align 2, !tbaa !39
  %20 = sext i16 %19 to i32
  %21 = getelementptr inbounds nuw i16, ptr %0, i64 %indvars.iv
  %22 = load i16, ptr %21, align 2, !tbaa !39
  %23 = sext i16 %22 to i32
  %24 = add nsw i32 %20, %23
  %reass.sub = sub nsw i32 %17, %24
  %25 = add nsw i32 %reass.sub, 16
  %26 = lshr i32 %25, 5
  %27 = trunc i32 %26 to i16
  %28 = sub i16 %9, %27
  store i16 %28, ptr %8, align 2, !tbaa !39
  %indvars.iv.next = add nuw nsw i64 %indvars.iv, 1
  %exitcond.not = icmp eq i64 %indvars.iv.next, %wide.trip.count
  br i1 %exitcond.not, label %._crit_edge, label %.lr.ph, !llvm.loop !48

._crit_edge:                                      ; preds = %.lr.ph, %6
  ret void
}